target datalayout = "e-m:e-p270:32:32-p271:32:32-p272:64:64-i64:64-i128:128-f80:128-n8:16:32:64-S128"
target triple = "x86_64-pc-linux-gnu"

%"class.OpenImageIO::v3_1_0::basic_string_view" = type { ptr, i64 }

; Function Attrs: inlinehint mustprogress nounwind uwtable
define linkonce_odr hidden noundef i32 @_ZN11OpenImageIO6v3_1_07islowerEc(i8 noundef signext %0) #4 comdat {
  %2 = alloca i8, align 1
  store i8 %0, ptr %2, align 1, !tbaa !8
  %3 = load i8, ptr %2, align 1, !tbaa !8
  %4 = sext i8 %3 to i32
  %5 = icmp sge i32 %4, 97
  br i1 %5, label %6, label %10

6:                                                ; preds = %1
  %7 = load i8, ptr %2, align 1, !tbaa !8
  %8 = sext i8 %7 to i32
  %9 = icmp sle i32 %8, 122
  br label %10

10:                                               ; preds = %6, %1
  %11 = phi i1 [ false, %1 ], [ %9, %6 ]
  %12 = zext i1 %11 to i32
  ret i32 %12
}

; Function Attrs: inlinehint mustprogress nounwind uwtable
define linkonce_odr hidden noundef i32 @_ZN11OpenImageIO6v3_1_07isupperEc(i8 noundef signext %0) #4 comdat {
  %2 = alloca i8, align 1
  store i8 %0, ptr %2, align 1, !tbaa !8
  %3 = load i8, ptr %2, align 1, !tbaa !8
  %4 = sext i8 %3 to i32
  %5 = icmp sge i32 %4, 65
  br i1 %5, label %6, label %10

6:                                                ; preds = %1
  %7 = load i8, ptr %2, align 1, !tbaa !8
  %8 = sext i8 %7 to i32
  %9 = icmp sle i32 %8, 90
  br label %10

10:                                               ; preds = %6, %1
  %11 = phi i1 [ false, %1 ], [ %9, %6 ]
  %12 = zext i1 %11 to i32
  ret i32 %12
}

; Function Attrs: inlinehint mustprogress nounwind uwtable
define linkonce_odr hidden noundef zeroext i1 @_ZN11OpenImageIO6v3_1_07Strutil7isspaceEc(i8 noundef signext %0) #4 comdat {
  %2 = alloca i8, align 1
  store i8 %0, ptr %2, align 1, !tbaa !8
  %3 = load i8, ptr %2, align 1, !tbaa !8
  %4 = sext i8 %3 to i32
  %5 = icmp eq i32 %4, 32
  br i1 %5, label %18, label %6

6:                                                ; preds = %1
  %7 = load i8, ptr %2, align 1, !tbaa !8
  %8 = sext i8 %7 to i32
  %9 = icmp eq i32 %8, 10
  br i1 %9, label %18, label %10

10:                                               ; preds = %6
  %11 = load i8, ptr %2, align 1, !tbaa !8
  %12 = sext i8 %11 to i32
  %13 = icmp eq i32 %12, 9
  br i1 %13, label %18, label %14

14:                                               ; preds = %10
  %15 = load i8, ptr %2, align 1, !tbaa !8
  %16 = sext i8 %15 to i32
  %17 = icmp eq i32 %16, 13
  br label %18

18:                                               ; preds = %14, %10, %6, %1
  %19 = phi i1 [ true, %10 ], [ true, %6 ], [ true, %1 ], [ %17, %14 ]
  ret i1 %19
}

; Function Attrs: mustprogress nounwind uwtable
define linkonce_odr hidden noundef nonnull align 1 dereferenceable(1) ptr @_ZNK11OpenImageIO6v3_1_017basic_string_viewIcSt11char_traitsIcEE5frontEv(ptr noundef nonnull align 8 dereferenceable(16) %0) #6 comdat align 2 {
  %2 = alloca ptr, align 8
  store ptr %0, ptr %2, align 8, !tbaa !103
  %3 = load ptr, ptr %2, align 8
  %4 = getelementptr inbounds nuw %"class.OpenImageIO::v3_1_0::basic_string_view", ptr %3, i32 0, i32 0
  %5 = load ptr, ptr %4, align 8, !tbaa !109
  %6 = getelementptr inbounds i8, ptr %5, i64 0
  ret ptr %6
}

; Function Attrs: mustprogress nounwind uwtable
define linkonce_odr hidden noundef i64 @_ZNK11OpenImageIO6v3_1_017basic_string_viewIcSt11char_traitsIcEE4sizeEv(ptr noundef nonnull align 8 dereferenceable(16) %0) #6 comdat align 2 {
  %2 = alloca ptr, align 8
  store ptr %0, ptr %2, align 8, !tbaa !103
  %3 = load ptr, ptr %2, align 8
  %4 = getelementptr inbounds nuw %"class.OpenImageIO::v3_1_0::basic_string_view", ptr %3, i32 0, i32 1
  %5 = load i64, ptr %4, align 8, !tbaa !105
  ret i64 %5
}

; Function Attrs: mustprogress nounwind uwtable
define linkonce_odr hidden noundef ptr @_ZNK11OpenImageIO6v3_1_017basic_string_viewIcSt11char_traitsIcEE4dataEv(ptr noundef nonnull align 8 dereferenceable(16) %0) #6 comdat align 2 {
  %2 = alloca ptr, align 8
  store ptr %0, ptr %2, align 8, !tbaa !103
  %3 = load ptr, ptr %2, align 8
  %4 = getelementptr inbounds nuw %"class.OpenImageIO::v3_1_0::basic_string_view", ptr %3, i32 0, i32 0
  %5 = load ptr, ptr %4, align 8, !tbaa !109
  ret ptr %5
}

; Function Attrs: noinline noreturn nounwind uwtable
define linkonce_odr hidden void @__clang_call_terminate(ptr noundef %0) #17 comdat {
  %2 = call ptr @__cxa_begin_catch(ptr %0) #3
  call void @_ZSt9terminatev() #28
  unreachable
}

; Function Attrs: mustprogress nounwind uwtable
define linkonce_odr hidden void @_ZN11OpenImageIO6v3_1_017basic_string_viewIcSt11char_traitsIcEEC2EPKcm(ptr noundef nonnull align 8 dereferenceable(16) %0, ptr noundef %1, i64 noundef %2) unnamed_addr #6 comdat align 2 {
  %4 = alloca ptr, align 8
  %5 = alloca ptr, align 8
  %6 = alloca i64, align 8
  store ptr %0, ptr %4, align 8, !tbaa !103
  store ptr %1, ptr %5, align 8, !tbaa !10
  store i64 %2, ptr %6, align 8, !tbaa !108
  %7 = load ptr, ptr %4, align 8
  %8 = getelementptr inbounds nuw %"class.OpenImageIO::v3_1_0::basic_string_view", ptr %7, i32 0, i32 0
  %9 = load ptr, ptr %5, align 8, !tbaa !10
  store ptr %9, ptr %8, align 8, !tbaa !109
  %10 = getelementptr inbounds nuw %"class.OpenImageIO::v3_1_0::basic_string_view", ptr %7, i32 0, i32 1
  %11 = load i64, ptr %6, align 8, !tbaa !108
  store i64 %11, ptr %10, align 8, !tbaa !105
  ret void
}

; Function Attrs: mustprogress nounwind uwtable
define linkonce_odr hidden void @_ZN11OpenImageIO6v3_1_017basic_string_viewIcSt11char_traitsIcEE13remove_prefixEm(ptr noundef nonnull align 8 dereferenceable(16) %0, i64 noundef %1) #6 comdat align 2 {
  %3 = alloca ptr, align 8
  %4 = alloca i64, align 8
  store ptr %0, ptr %3, align 8, !tbaa !103
  store i64 %1, ptr %4, align 8, !tbaa !108
  %5 = load ptr, ptr %3, align 8
  %6 = load i64, ptr %4, align 8, !tbaa !108
  %7 = getelementptr inbounds nuw %"class.OpenImageIO::v3_1_0::basic_string_view", ptr %5, i32 0, i32 1
  %8 = load i64, ptr %7, align 8, !tbaa !105
  %9 = icmp ugt i64 %6, %8
  br i1 %9, label %10, label %13

10:                                               ; preds = %2
  %11 = getelementptr inbounds nuw %"class.OpenImageIO::v3_1_0::basic_string_view", ptr %5, i32 0, i32 1
  %12 = load i64, ptr %11, align 8, !tbaa !105
  store i64 %12, ptr %4, align 8, !tbaa !108
  br label %13

13:                                               ; preds = %10, %2
  %14 = load i64, ptr %4, align 8, !tbaa !108
  %15 = getelementptr inbounds nuw %"class.OpenImageIO::v3_1_0::basic_string_view", ptr %5, i32 0, i32 0
  %16 = load ptr, ptr %15, align 8, !tbaa !109
  %17 = getelementptr inbounds nuw i8, ptr %16, i64 %14
  store ptr %17, ptr %15, align 8, !tbaa !109
  %18 = load i64, ptr %4, align 8, !tbaa !108
  %19 = getelementptr inbounds nuw %"class.OpenImageIO::v3_1_0::basic_string_view", ptr %5, i32 0, i32 1
  %20 = load i64, ptr %19, align 8, !tbaa !105
  %21 = sub i64 %20, %18
  store i64 %21, ptr %19, align 8, !tbaa !105
  ret void
}

; Function Attrs: inlinehint mustprogress nounwind uwtable
define linkonce_odr hidden noundef i32 @_ZN11OpenImageIO6v3_1_07isdigitEc(i8 noundef signext %0) #4 comdat {
  %2 = alloca i8, align 1
  store i8 %0, ptr %2, align 1, !tbaa !8
  %3 = load i8, ptr %2, align 1, !tbaa !8
  %4 = sext i8 %3 to i32
  %5 = icmp sge i32 %4, 48
  br i1 %5, label %6, label %10

6:                                                ; preds = %1
  %7 = load i8, ptr %2, align 1, !tbaa !8
  %8 = sext i8 %7 to i32
  %9 = icmp sle i32 %8, 57
  br label %10

10:                                               ; preds = %6, %1
  %11 = phi i1 [ false, %1 ], [ %9, %6 ]
  %12 = zext i1 %11 to i32
  ret i32 %12
}

; Function Attrs: mustprogress nounwind uwtable
define linkonce_odr hidden void @_ZN11OpenImageIO6v3_1_017basic_string_viewIcSt11char_traitsIcEEC2Ev(ptr noundef nonnull align 8 dereferenceable(16) %0) unnamed_addr #6 comdat align 2 {
  %2 = alloca ptr, align 8
  store ptr %0, ptr %2, align 8, !tbaa !103
  %3 = load ptr, ptr %2, align 8
  %4 = getelementptr inbounds nuw %"class.OpenImageIO::v3_1_0::basic_string_view", ptr %3, i32 0, i32 0
  store ptr null, ptr %4, align 8, !tbaa !109
  %5 = getelementptr inbounds nuw %"class.OpenImageIO::v3_1_0::basic_string_view", ptr %3, i32 0, i32 1
  store i64 0, ptr %5, align 8, !tbaa !105
  ret void
}

; Function Attrs: inlinehint mustprogress uwtable
define linkonce_odr hidden noundef i32 @_ZN11OpenImageIO6v3_1_07isalphaEc(i8 noundef signext %0) #13 comdat {
  %2 = alloca i8, align 1
  store i8 %0, ptr %2, align 1, !tbaa !8
  %3 = load i8, ptr %2, align 1, !tbaa !8
  %4 = call noundef i32 @_ZN11OpenImageIO6v3_1_07isupperEc(i8 noundef signext %3)
  %5 = icmp ne i32 %4, 0
  br i1 %5, label %10, label %6

6:                                                ; preds = %1
  %7 = load i8, ptr %2, align 1, !tbaa !8
  %8 = call noundef i32 @_ZN11OpenImageIO6v3_1_07islowerEc(i8 noundef signext %7)
  %9 = icmp ne i32 %8, 0
  br label %10

10:                                               ; preds = %6, %1
  %11 = phi i1 [ true, %1 ], [ %9, %6 ]
  %12 = zext i1 %11 to i32
  ret i32 %12
}

; Function Attrs: mustprogress nounwind uwtable
define linkonce_odr hidden noundef ptr @_ZNK11OpenImageIO6v3_1_017basic_string_viewIcSt11char_traitsIcEE3endEv(ptr noundef nonnull align 8 dereferenceable(16) %0) #6 comdat align 2 {
  %2 = alloca ptr, align 8
  store ptr %0, ptr %2, align 8, !tbaa !103
  %3 = load ptr, ptr %2, align 8
  %4 = getelementptr inbounds nuw %"class.OpenImageIO::v3_1_0::basic_string_view", ptr %3, i32 0, i32 0
  %5 = load ptr, ptr %4, align 8, !tbaa !109
  %6 = getelementptr inbounds nuw %"class.OpenImageIO::v3_1_0::basic_string_view", ptr %3, i32 0, i32 1
  %7 = load i64, ptr %6, align 8, !tbaa !105
  %8 = getelementptr inbounds nuw i8, ptr %5, i64 %7
  ret ptr %8
}

; Function Attrs: mustprogress nounwind uwtable
define linkonce_odr hidden noundef ptr @_ZNK11OpenImageIO6v3_1_017basic_string_viewIcSt11char_traitsIcEE5beginEv(ptr noundef nonnull align 8 dereferenceable(16) %0) #6 comdat align 2 {
  %2 = alloca ptr, align 8
  store ptr %0, ptr %2, align 8, !tbaa !103
  %3 = load ptr, ptr %2, align 8
  %4 = getelementptr inbounds nuw %"class.OpenImageIO::v3_1_0::basic_string_view", ptr %3, i32 0, i32 0
  %5 = load ptr, ptr %4, align 8, !tbaa !109
  ret ptr %5
}

; Function Attrs: mustprogress nounwind uwtable
define void @_ZN11OpenImageIO6v3_1_07Strutil15skip_whitespaceERNS0_17basic_string_viewIcSt11char_traitsIcEEE(ptr noundef nonnull align 8 dereferenceable(16) %0) #6 personality ptr @__gxx_personality_v0 {
  %2 = alloca ptr, align 8
  store ptr %0, ptr %2, align 8, !tbaa !103
  br label %3

3:                                                ; preds = %16, %1
  %4 = load ptr, ptr %2, align 8, !tbaa !103
  %5 = call noundef i64 @_ZNK11OpenImageIO6v3_1_017basic_string_viewIcSt11char_traitsIcEE4sizeEv(ptr noundef nonnull align 8 dereferenceable(16) %4) #3
  %6 = icmp ne i64 %5, 0
  br i1 %6, label %7, label %14

7:                                                ; preds = %3
  %8 = load ptr, ptr %2, align 8, !tbaa !103
  %9 = invoke noundef nonnull align 1 dereferenceable(1) ptr @_ZNK11OpenImageIO6v3_1_017basic_string_viewIcSt11char_traitsIcEE5frontEv(ptr noundef nonnull align 8 dereferenceable(16) %8)
          to label %10 unwind label %19

10:                                               ; preds = %7
  %11 = load i8, ptr %9, align 1, !tbaa !8
  %12 = invoke noundef zeroext i1 @_ZN11OpenImageIO6v3_1_07Strutil7isspaceEc(i8 noundef signext %11)
          to label %13 unwind label %19

13:                                               ; preds = %10
  br label %14

14:                                               ; preds = %13, %3
  %15 = phi i1 [ false, %3 ], [ %12, %13 ]
  br i1 %15, label %16, label %18

16:                                               ; preds = %14
  %17 = load ptr, ptr %2, align 8, !tbaa !103
  call void @_ZN11OpenImageIO6v3_1_017basic_string_viewIcSt11char_traitsIcEE13remove_prefixEm(ptr noundef nonnull align 8 dereferenceable(16) %17, i64 noundef 1) #3
  br label %3, !llvm.loop !246

18:                                               ; preds = %14
  ret void

19:                                               ; preds = %10, %7
  %20 = landingpad { ptr, i32 }
          catch ptr null
  %21 = extractvalue { ptr, i32 } %20, 0
  call void @__clang_call_terminate(ptr %21) #28
  unreachable
}

; Function Attrs: mustprogress nounwind uwtable
define linkonce_odr hidden void @_ZN11OpenImageIO6v3_1_017basic_string_viewIcSt11char_traitsIcEEC2ERKS4_(ptr noundef nonnull align 8 dereferenceable(16) %0, ptr noundef nonnull align 8 dereferenceable(16) %1) unnamed_addr #6 comdat align 2 {
  %3 = alloca ptr, align 8
  %4 = alloca ptr, align 8
  store ptr %0, ptr %3, align 8, !tbaa !103
  store ptr %1, ptr %4, align 8, !tbaa !103
  %5 = load ptr, ptr %3, align 8
  %6 = getelementptr inbounds nuw %"class.OpenImageIO::v3_1_0::basic_string_view", ptr %5, i32 0, i32 0
  %7 = load ptr, ptr %4, align 8, !tbaa !103
  %8 = call noundef ptr @_ZNK11OpenImageIO6v3_1_017basic_string_viewIcSt11char_traitsIcEE4dataEv(ptr noundef nonnull align 8 dereferenceable(16) %7) #3
  store ptr %8, ptr %6, align 8, !tbaa !109
  %9 = getelementptr inbounds nuw %"class.OpenImageIO::v3_1_0::basic_string_view", ptr %5, i32 0, i32 1
  %10 = load ptr, ptr %4, align 8, !tbaa !103
  %11 = call noundef i64 @_ZNK11OpenImageIO6v3_1_017basic_string_viewIcSt11char_traitsIcEE4sizeEv(ptr noundef nonnull align 8 dereferenceable(16) %10) #3
  store i64 %11, ptr %9, align 8, !tbaa !105
  ret void
}

; Function Attrs: mustprogress nounwind uwtable
define void @_ZN11OpenImageIO6v3_1_07Strutil16parse_identifierERNS0_17basic_string_viewIcSt11char_traitsIcEEEb(ptr dead_on_unwind noalias writable sret(%"class.OpenImageIO::v3_1_0::basic_string_view") align 8 %0, ptr noundef nonnull align 8 dereferenceable(16) %1, i1 noundef zeroext %2) #6 personality ptr @__gxx_personality_v0 {
  %4 = alloca ptr, align 8
  %5 = alloca ptr, align 8
  %6 = alloca i8, align 1
  %7 = alloca %"class.OpenImageIO::v3_1_0::basic_string_view", align 8
  %8 = alloca ptr, align 8
  %9 = alloca ptr, align 8
  %10 = alloca i32, align 4
  store ptr %0, ptr %4, align 8
  store ptr %1, ptr %5, align 8, !tbaa !103
  %11 = zext i1 %2 to i8
  store i8 %11, ptr %6, align 1, !tbaa !116
  call void @llvm.lifetime.start.p0(i64 16, ptr %7) #3
  %12 = load ptr, ptr %5, align 8, !tbaa !103
  invoke void @_ZN11OpenImageIO6v3_1_017basic_string_viewIcSt11char_traitsIcEEC2ERKS4_(ptr noundef nonnull align 8 dereferenceable(16) %7, ptr noundef nonnull align 8 dereferenceable(16) %12)
          to label %13 unwind label %81

13:                                               ; preds = %3
  call void @_ZN11OpenImageIO6v3_1_07Strutil15skip_whitespaceERNS0_17basic_string_viewIcSt11char_traitsIcEEE(ptr noundef nonnull align 8 dereferenceable(16) %7) #3
  call void @llvm.lifetime.start.p0(i64 8, ptr %8) #3
  %14 = call noundef ptr @_ZNK11OpenImageIO6v3_1_017basic_string_viewIcSt11char_traitsIcEE5beginEv(ptr noundef nonnull align 8 dereferenceable(16) %7) #3
  store ptr %14, ptr %8, align 8, !tbaa !10
  call void @llvm.lifetime.start.p0(i64 8, ptr %9) #3
  %15 = call noundef ptr @_ZNK11OpenImageIO6v3_1_017basic_string_viewIcSt11char_traitsIcEE5beginEv(ptr noundef nonnull align 8 dereferenceable(16) %7) #3
  store ptr %15, ptr %9, align 8, !tbaa !10
  %16 = load ptr, ptr %9, align 8, !tbaa !10
  %17 = call noundef ptr @_ZNK11OpenImageIO6v3_1_017basic_string_viewIcSt11char_traitsIcEE3endEv(ptr noundef nonnull align 8 dereferenceable(16) %7) #3
  %18 = icmp ne ptr %16, %17
  br i1 %18, label %19, label %33

19:                                               ; preds = %13
  %20 = load ptr, ptr %9, align 8, !tbaa !10
  %21 = load i8, ptr %20, align 1, !tbaa !8
  %22 = invoke noundef i32 @_ZN11OpenImageIO6v3_1_07isalphaEc(i8 noundef signext %21)
          to label %23 unwind label %81

23:                                               ; preds = %19
  %24 = icmp ne i32 %22, 0
  br i1 %24, label %30, label %25

25:                                               ; preds = %23
  %26 = load ptr, ptr %9, align 8, !tbaa !10
  %27 = load i8, ptr %26, align 1, !tbaa !8
  %28 = sext i8 %27 to i32
  %29 = icmp eq i32 %28, 95
  br i1 %29, label %30, label %33

30:                                               ; preds = %25, %23
  %31 = load ptr, ptr %9, align 8, !tbaa !10
  %32 = getelementptr inbounds nuw i8, ptr %31, i32 1
  store ptr %32, ptr %9, align 8, !tbaa !10
  br label %34

33:                                               ; preds = %25, %13
  call void @_ZN11OpenImageIO6v3_1_017basic_string_viewIcSt11char_traitsIcEEC2Ev(ptr noundef nonnull align 8 dereferenceable(16) %0) #3
  store i32 1, ptr %10, align 4
  br label %80

34:                                               ; preds = %30
  br label %35

35:                                               ; preds = %60, %34
  %36 = load ptr, ptr %9, align 8, !tbaa !10
  %37 = call noundef ptr @_ZNK11OpenImageIO6v3_1_017basic_string_viewIcSt11char_traitsIcEE3endEv(ptr noundef nonnull align 8 dereferenceable(16) %7) #3
  %38 = icmp ne ptr %36, %37
  br i1 %38, label %39, label %58

39:                                               ; preds = %35
  %40 = load ptr, ptr %9, align 8, !tbaa !10
  %41 = load i8, ptr %40, align 1, !tbaa !8
  %42 = invoke noundef i32 @_ZN11OpenImageIO6v3_1_07isalphaEc(i8 noundef signext %41)
          to label %43 unwind label %81

43:                                               ; preds = %39
  %44 = icmp ne i32 %42, 0
  br i1 %44, label %56, label %45

45:                                               ; preds = %43
  %46 = load ptr, ptr %9, align 8, !tbaa !10
  %47 = load i8, ptr %46, align 1, !tbaa !8
  %48 = invoke noundef i32 @_ZN11OpenImageIO6v3_1_07isdigitEc(i8 noundef signext %47)
          to label %49 unwind label %81

49:                                               ; preds = %45
  %50 = icmp ne i32 %48, 0
  br i1 %50, label %56, label %51

51:                                               ; preds = %49
  %52 = load ptr, ptr %9, align 8, !tbaa !10
  %53 = load i8, ptr %52, align 1, !tbaa !8
  %54 = sext i8 %53 to i32
  %55 = icmp eq i32 %54, 95
  br label %56

56:                                               ; preds = %51, %49, %43
  %57 = phi i1 [ true, %49 ], [ true, %43 ], [ %55, %51 ]
  br label %58

58:                                               ; preds = %56, %35
  %59 = phi i1 [ false, %35 ], [ %57, %56 ]
  br i1 %59, label %60, label %63

60:                                               ; preds = %58
  %61 = load ptr, ptr %9, align 8, !tbaa !10
  %62 = getelementptr inbounds nuw i8, ptr %61, i32 1
  store ptr %62, ptr %9, align 8, !tbaa !10
  br label %35, !llvm.loop !269

63:                                               ; preds = %58
  %64 = load i8, ptr %6, align 1, !tbaa !116, !range !118, !noundef !119
  %65 = trunc i8 %64 to i1
  br i1 %65, label %66, label %73

66:                                               ; preds = %63
  %67 = load ptr, ptr %9, align 8, !tbaa !10
  %68 = load ptr, ptr %8, align 8, !tbaa !10
  %69 = ptrtoint ptr %67 to i64
  %70 = ptrtoint ptr %68 to i64
  %71 = sub i64 %69, %70
  call void @_ZN11OpenImageIO6v3_1_017basic_string_viewIcSt11char_traitsIcEE13remove_prefixEm(ptr noundef nonnull align 8 dereferenceable(16) %7, i64 noundef %71) #3
  %72 = load ptr, ptr %5, align 8, !tbaa !103
  call void @llvm.memcpy.p0.p0.i64(ptr align 8 %72, ptr align 8 %7, i64 16, i1 false), !tbaa.struct !134
  br label %73

73:                                               ; preds = %66, %63
  %74 = load ptr, ptr %8, align 8, !tbaa !10
  %75 = load ptr, ptr %9, align 8, !tbaa !10
  %76 = load ptr, ptr %8, align 8, !tbaa !10
  %77 = ptrtoint ptr %75 to i64
  %78 = ptrtoint ptr %76 to i64
  %79 = sub i64 %77, %78
  call void @_ZN11OpenImageIO6v3_1_017basic_string_viewIcSt11char_traitsIcEEC2EPKcm(ptr noundef nonnull align 8 dereferenceable(16) %0, ptr noundef %74, i64 noundef %79) #3
  store i32 1, ptr %10, align 4
  br label %80

80:                                               ; preds = %73, %33
  call void @llvm.lifetime.end.p0(i64 8, ptr %9) #3
  call void @llvm.lifetime.end.p0(i64 8, ptr %8) #3
  call void @llvm.lifetime.end.p0(i64 16, ptr %7) #3
  ret void

81:                                               ; preds = %45, %39, %19, %3
  %82 = landingpad { ptr, i32 }
          catch ptr null
  %83 = extractvalue { ptr, i32 } %82, 0
  call void @__clang_call_terminate(ptr %83) #28
  unreachable
}