; Function Attrs: mustprogress nofree norecurse nosync nounwind memory(read, argmem: readwrite, inaccessiblemem: none) uwtable
define void @_ZN11OpenImageIO6v3_1_07Strutil16parse_identifierERNS0_17basic_string_viewIcSt11char_traitsIcEEEb(ptr dead_on_unwind noalias writable writeonly sret(%"class.OpenImageIO::v3_1_0::basic_string_view") align 8 captures(none) %0, ptr noundef nonnull align 8 captures(none) dereferenceable(16) %1, i1 noundef zeroext %2) local_unnamed_addr #14 personality ptr @__gxx_personality_v0 {
  %4 = getelementptr inbounds nuw i8, ptr %1, i64 8
  %5 = load i64, ptr %4, align 8, !tbaa !64
  %.not4.i = icmp eq i64 %5, 0
  br i1 %.not4.i, label %_ZN11OpenImageIO6v3_1_07Strutil15skip_whitespaceERNS0_17basic_string_viewIcSt11char_traitsIcEEE.exit.thread, label %.lr.ph.i.preheader

.lr.ph.i.preheader:                               ; preds = %3
  %6 = load ptr, ptr %1, align 8, !tbaa !67
  br label %.lr.ph.i

.lr.ph.i:                                         ; preds = %.lr.ph.i.preheader, %8
  %.sroa.12.0 = phi i64 [ %10, %8 ], [ %5, %.lr.ph.i.preheader ]
  %.sroa.0.0 = phi ptr [ %9, %8 ], [ %6, %.lr.ph.i.preheader ]
  %7 = load i8, ptr %.sroa.0.0, align 1, !tbaa !3
  switch i8 %7, label %11 [
    i8 32, label %8
    i8 10, label %8
    i8 9, label %8
    i8 13, label %8
  ]

8:                                                ; preds = %.lr.ph.i, %.lr.ph.i, %.lr.ph.i, %.lr.ph.i
  %9 = getelementptr inbounds nuw i8, ptr %.sroa.0.0, i64 1
  %10 = add i64 %.sroa.12.0, -1
  %.not.i = icmp eq i64 %10, 0
  br i1 %.not.i, label %_ZN11OpenImageIO6v3_1_07Strutil15skip_whitespaceERNS0_17basic_string_viewIcSt11char_traitsIcEEE.exit.thread, label %.lr.ph.i, !llvm.loop !79

11:                                               ; preds = %.lr.ph.i
  %12 = getelementptr i8, ptr %.sroa.0.0, i64 %.sroa.12.0
  %13 = load i8, ptr %.sroa.0.0, align 1, !tbaa !3
  %14 = and i8 %13, -33
  %15 = add i8 %14, -65
  %narrow.i = icmp ult i8 %15, 26
  %16 = icmp eq i8 %13, 95
  %or.cond = or i1 %16, %narrow.i
  br i1 %or.cond, label %.preheader, label %_ZN11OpenImageIO6v3_1_07Strutil15skip_whitespaceERNS0_17basic_string_viewIcSt11char_traitsIcEEE.exit.thread

.preheader:                                       ; preds = %11
  %.032 = getelementptr inbounds nuw i8, ptr %.sroa.0.0, i64 1
  %.not2033 = icmp samesign eq i64 %.sroa.12.0, 1
  br i1 %.not2033, label %.critedge, label %.lr.ph

_ZN11OpenImageIO6v3_1_07Strutil15skip_whitespaceERNS0_17basic_string_viewIcSt11char_traitsIcEEE.exit.thread: ; preds = %8, %3, %11
  tail call void @llvm.memset.p0.i64(ptr noundef nonnull align 8 dereferenceable(16) %0, i8 0, i64 16, i1 false)
  br label %31

.lr.ph:                                           ; preds = %.preheader, %.critedge2
  %.034 = phi ptr [ %.0, %.critedge2 ], [ %.032, %.preheader ]
  %17 = load i8, ptr %.034, align 1, !tbaa !3
  %18 = and i8 %17, -33
  %19 = add i8 %18, -91
  %narrow.i23 = icmp ult i8 %19, -26
  br i1 %narrow.i23, label %20, label %.critedge2

20:                                               ; preds = %.lr.ph
  %21 = add i8 %17, -48
  %22 = icmp ult i8 %21, 10
  %23 = icmp eq i8 %17, 95
  %or.cond31 = or i1 %23, %22
  br i1 %or.cond31, label %.critedge2, label %.critedge

.critedge2:                                       ; preds = %20, %.lr.ph
  %.0 = getelementptr inbounds nuw i8, ptr %.034, i64 1
  %.not20 = icmp eq ptr %.0, %12
  br i1 %.not20, label %.critedge, label %.lr.ph, !llvm.loop !359

.critedge:                                        ; preds = %.critedge2, %20, %.preheader
  %.0.lcssa = phi ptr [ %.032, %.preheader ], [ %.034, %20 ], [ %12, %.critedge2 ]
  %24 = ptrtoint ptr %.0.lcssa to i64
  %25 = ptrtoint ptr %.sroa.0.0 to i64
  %26 = sub i64 %24, %25
  br i1 %2, label %27, label %.critedge._crit_edge

27:                                               ; preds = %.critedge
  %spec.select.i = tail call i64 @llvm.umin.i64(i64 %26, i64 %.sroa.12.0)
  %28 = getelementptr inbounds nuw i8, ptr %.sroa.0.0, i64 %spec.select.i
  %29 = sub i64 %.sroa.12.0, %spec.select.i
  store ptr %28, ptr %1, align 8, !tbaa !13
  store i64 %29, ptr %4, align 8, !tbaa !86
  br label %.critedge._crit_edge

.critedge._crit_edge:                             ; preds = %.critedge, %27
  store ptr %.sroa.0.0, ptr %0, align 8, !tbaa !67
  %30 = getelementptr inbounds nuw i8, ptr %0, i64 8
  store i64 %26, ptr %30, align 8, !tbaa !64
  br label %31

31:                                               ; preds = %.critedge._crit_edge, %_ZN11OpenImageIO6v3_1_07Strutil15skip_whitespaceERNS0_17basic_string_viewIcSt11char_traitsIcEEE.exit.thread
  ret void
}